target datalayout = "e-m:e-p270:32:32-p271:32:32-p272:64:64-i64:64-i128:128-f80:128-n8:16:32:64-S128"
target triple = "x86_64-unknown-linux-gnu"

%"class.v8::Local" = type { %"class.v8::LocalBase" }
%"class.v8::LocalBase" = type { %"class.v8::IndirectHandleBase" }
%"class.v8::IndirectHandleBase" = type { ptr }
%"class.node::AsyncWrap" = type { %"class.node::BaseObject", i32, i8, double, double }
%"class.node::BaseObject" = type { %"class.node::MemoryRetainer", %"class.v8::Global", ptr, ptr }
%"class.node::MemoryRetainer" = type { ptr }
%"class.v8::Global" = type { %"class.v8::PersistentBase" }
%"class.v8::PersistentBase" = type { %"class.v8::IndirectHandleBase" }
%struct.uv__queue = type { ptr, ptr }
%"class.node::UDPListener" = type { ptr, ptr }
%"class.node::UDPWrapBase" = type { ptr, ptr }
%"class.node::ListNode.154" = type { ptr, ptr }
%"class.node::UDPWrap" = type { %"class.node::HandleWrap", %"class.node::UDPWrapBase", %"class.node::UDPListener", %struct.uv_udp_s, i8, %"class.v8::Local" }
%"class.node::HandleWrap" = type { %"class.node::AsyncWrap", i32, %"class.node::ListNode.154", ptr }
%struct.uv_udp_s = type { ptr, ptr, i32, ptr, %struct.uv__queue, %union.anon.260, ptr, i32, i64, i64, ptr, ptr, %struct.uv__io_s, %struct.uv__queue, %struct.uv__queue }
%union.anon.260 = type { [4 x ptr] }
%struct.uv__io_s = type { ptr, %struct.uv__queue, %struct.uv__queue, i32, i32, i32 }

; Function Attrs: mustprogress nounwind uwtable
define linkonce_odr dso_local noundef zeroext i1 @_ZNK4node10HandleWrap15IsHandleClosingEv(ptr noundef nonnull align 8 dereferenceable(88) %this) #4 comdat align 2 {
entry:
  %this.addr = alloca ptr, align 8
  store ptr %this, ptr %this.addr, align 8
  %this1 = load ptr, ptr %this.addr, align 8
  %state_ = getelementptr inbounds %"class.node::HandleWrap", ptr %this1, i32 0, i32 1
  %0 = load i32, ptr %state_, align 8
  %cmp = icmp eq i32 %0, 1
  br i1 %cmp, label %lor.end, label %lor.rhs

lor.rhs:                                          ; preds = %entry
  %state_2 = getelementptr inbounds %"class.node::HandleWrap", ptr %this1, i32 0, i32 1
  %1 = load i32, ptr %state_2, align 8
  %cmp3 = icmp eq i32 %1, 2
  br label %lor.end

lor.end:                                          ; preds = %lor.rhs, %entry
  %2 = phi i1 [ true, %entry ], [ %cmp3, %lor.rhs ]
  ret i1 %2
}

; Function Attrs: mustprogress nounwind uwtable
define dso_local noundef i32 @_ZN4node7UDPWrap8RecvStopEv(ptr noundef nonnull align 8 dereferenceable(352) %this) unnamed_addr #4 align 2 {
entry:
  %retval = alloca i32, align 4
  %this.addr = alloca ptr, align 8
  store ptr %this, ptr %this.addr, align 8
  %this1 = load ptr, ptr %this.addr, align 8
  %call = call noundef zeroext i1 @_ZNK4node10HandleWrap15IsHandleClosingEv(ptr noundef nonnull align 8 dereferenceable(88) %this1)
  br i1 %call, label %if.then, label %if.end

if.then:                                          ; preds = %entry
  store i32 -9, ptr %retval, align 4
  br label %return

if.end:                                           ; preds = %entry
  %handle_ = getelementptr inbounds %"class.node::UDPWrap", ptr %this1, i32 0, i32 3
  %call2 = call i32 @uv_udp_recv_stop(ptr noundef %handle_)
  store i32 %call2, ptr %retval, align 4
  br label %return

return:                                           ; preds = %if.end, %if.then
  %0 = load i32, ptr %retval, align 4
  ret i32 %0
}